target datalayout = "e-m:e-p270:32:32-p271:32:32-p272:64:64-i64:64-i128:128-f80:128-n8:16:32:64-S128"
target triple = "x86_64-pc-linux-gnu"

%struct.TuplesortPublic = type { ptr, ptr, ptr, ptr, ptr, ptr, ptr, ptr, ptr, i8, i32, ptr, ptr, i32, i8, ptr }
%struct.SortTuple = type { ptr, i64, i8, i32 }
%struct.TuplesortDatumArg = type { i32, i32 }

; Function Attrs: inlinehint nounwind uwtable
define internal i64 @PointerGetDatum(ptr noundef %0) #3 {
  %2 = alloca ptr, align 8
  store ptr %0, ptr %2, align 8
  %3 = load ptr, ptr %2, align 8
  %4 = ptrtoint ptr %3 to i64
  ret i64 %4
}

; Function Attrs: nounwind uwtable
define internal void @writetup_datum(ptr noundef %0, ptr noundef %1, ptr noundef %2) #0 {
  %4 = alloca ptr, align 8
  %5 = alloca ptr, align 8
  %6 = alloca ptr, align 8
  %7 = alloca ptr, align 8
  %8 = alloca ptr, align 8
  %9 = alloca ptr, align 8
  %10 = alloca i32, align 4
  %11 = alloca i32, align 4
  store ptr %0, ptr %4, align 8
  store ptr %1, ptr %5, align 8
  store ptr %2, ptr %6, align 8
  call void @llvm.lifetime.start.p0(i64 8, ptr %7) #6
  %12 = load ptr, ptr %4, align 8
  store ptr %12, ptr %7, align 8
  call void @llvm.lifetime.start.p0(i64 8, ptr %8) #6
  %13 = load ptr, ptr %7, align 8
  %14 = getelementptr inbounds nuw %struct.TuplesortPublic, ptr %13, i32 0, i32 15
  %15 = load ptr, ptr %14, align 8
  store ptr %15, ptr %8, align 8
  call void @llvm.lifetime.start.p0(i64 8, ptr %9) #6
  call void @llvm.lifetime.start.p0(i64 4, ptr %10) #6
  call void @llvm.lifetime.start.p0(i64 4, ptr %11) #6
  %16 = load ptr, ptr %6, align 8
  %17 = getelementptr inbounds nuw %struct.SortTuple, ptr %16, i32 0, i32 2
  %18 = load i8, ptr %17, align 8, !range !4, !noundef !5
  %19 = trunc i8 %18 to i1
  br i1 %19, label %20, label %21

20:                                               ; preds = %3
  store ptr null, ptr %9, align 8
  store i32 0, ptr %10, align 4
  br label %43

21:                                               ; preds = %3
  %22 = load ptr, ptr %7, align 8
  %23 = getelementptr inbounds nuw %struct.TuplesortPublic, ptr %22, i32 0, i32 14
  %24 = load i8, ptr %23, align 4, !range !4, !noundef !5
  %25 = trunc i8 %24 to i1
  br i1 %25, label %29, label %26

26:                                               ; preds = %21
  %27 = load ptr, ptr %6, align 8
  %28 = getelementptr inbounds nuw %struct.SortTuple, ptr %27, i32 0, i32 1
  store ptr %28, ptr %9, align 8
  store i32 8, ptr %10, align 4
  br label %42

29:                                               ; preds = %21
  %30 = load ptr, ptr %6, align 8
  %31 = getelementptr inbounds nuw %struct.SortTuple, ptr %30, i32 0, i32 0
  %32 = load ptr, ptr %31, align 8
  store ptr %32, ptr %9, align 8
  %33 = load ptr, ptr %6, align 8
  %34 = getelementptr inbounds nuw %struct.SortTuple, ptr %33, i32 0, i32 0
  %35 = load ptr, ptr %34, align 8
  %36 = call i64 @PointerGetDatum(ptr noundef %35)
  %37 = load ptr, ptr %8, align 8
  %38 = getelementptr inbounds nuw %struct.TuplesortDatumArg, ptr %37, i32 0, i32 1
  %39 = load i32, ptr %38, align 4
  %40 = call i64 @datumGetSize(i64 noundef %36, i1 noundef zeroext false, i32 noundef %39)
  %41 = trunc i64 %40 to i32
  store i32 %41, ptr %10, align 4
  br label %42

42:                                               ; preds = %29, %26
  br label %43

43:                                               ; preds = %42, %20
  %44 = load i32, ptr %10, align 4
  %45 = zext i32 %44 to i64
  %46 = add i64 %45, 4
  %47 = trunc i64 %46 to i32
  store i32 %47, ptr %11, align 4
  %48 = load ptr, ptr %5, align 8
  call void @LogicalTapeWrite(ptr noundef %48, ptr noundef %11, i64 noundef 4)
  %49 = load ptr, ptr %5, align 8
  %50 = load ptr, ptr %9, align 8
  %51 = load i32, ptr %10, align 4
  %52 = zext i32 %51 to i64
  call void @LogicalTapeWrite(ptr noundef %49, ptr noundef %50, i64 noundef %52)
  %53 = load ptr, ptr %7, align 8
  %54 = getelementptr inbounds nuw %struct.TuplesortPublic, ptr %53, i32 0, i32 13
  %55 = load i32, ptr %54, align 8
  %56 = and i32 %55, 1
  %57 = icmp ne i32 %56, 0
  br i1 %57, label %58, label %60

58:                                               ; preds = %43
  %59 = load ptr, ptr %5, align 8
  call void @LogicalTapeWrite(ptr noundef %59, ptr noundef %11, i64 noundef 4)
  br label %60

60:                                               ; preds = %58, %43
  call void @llvm.lifetime.end.p0(i64 4, ptr %11) #6
  call void @llvm.lifetime.end.p0(i64 4, ptr %10) #6
  call void @llvm.lifetime.end.p0(i64 8, ptr %9) #6
  call void @llvm.lifetime.end.p0(i64 8, ptr %8) #6
  call void @llvm.lifetime.end.p0(i64 8, ptr %7) #6
  ret void
}