; Function Attrs: nounwind uwtable
define internal void @writetup_datum(ptr noundef readonly captures(none) %0, ptr noundef %1, ptr noundef %2) #0 {
  %4 = alloca i32, align 4
  %5 = getelementptr inbounds nuw i8, ptr %0, i64 104
  %6 = load ptr, ptr %5, align 8
  call void @llvm.lifetime.start.p0(i64 4, ptr nonnull %4) #12
  %7 = getelementptr inbounds nuw i8, ptr %2, i64 16
  %8 = load i8, ptr %7, align 8, !range !4, !noundef !5
  %9 = trunc nuw i8 %8 to i1
  br i1 %9, label %23, label %10

10:                                               ; preds = %3
  %11 = getelementptr inbounds nuw i8, ptr %0, i64 100
  %12 = load i8, ptr %11, align 4, !range !4, !noundef !5
  %13 = trunc nuw i8 %12 to i1
  br i1 %13, label %16, label %14

14:                                               ; preds = %10
  %15 = getelementptr inbounds nuw i8, ptr %2, i64 8
  br label %23

16:                                               ; preds = %10
  %17 = load ptr, ptr %2, align 8
  %18 = ptrtoint ptr %17 to i64
  %19 = getelementptr inbounds nuw i8, ptr %6, i64 4
  %20 = load i32, ptr %19, align 4
  %21 = tail call i64 @datumGetSize(i64 noundef %18, i1 noundef zeroext false, i32 noundef %20) #12
  %22 = and i64 %21, 4294967295
  br label %23

23:                                               ; preds = %3, %14, %16
  %.014 = phi ptr [ %17, %16 ], [ %15, %14 ], [ null, %3 ]
  %.0 = phi i64 [ %22, %16 ], [ 8, %14 ], [ 0, %3 ]
  %24 = trunc nuw i64 %.0 to i32
  %25 = add i32 %24, 4
  store i32 %25, ptr %4, align 4
  call void @LogicalTapeWrite(ptr noundef %1, ptr noundef nonnull %4, i64 noundef 4) #12
  call void @LogicalTapeWrite(ptr noundef %1, ptr noundef %.014, i64 noundef %.0) #12
  %26 = getelementptr inbounds nuw i8, ptr %0, i64 96
  %27 = load i32, ptr %26, align 8
  %28 = and i32 %27, 1
  %.not = icmp eq i32 %28, 0
  br i1 %.not, label %30, label %29

29:                                               ; preds = %23
  call void @LogicalTapeWrite(ptr noundef %1, ptr noundef nonnull %4, i64 noundef 4) #12
  br label %30

30:                                               ; preds = %29, %23
  call void @llvm.lifetime.end.p0(i64 4, ptr nonnull %4) #12
  ret void
}